target datalayout = "e-m:e-p270:32:32-p271:32:32-p272:64:64-i64:64-i128:128-f80:128-n8:16:32:64-S128"
target triple = "x86_64-unknown-linux-gnu"

%"class.Assimp::MDLImporter" = type <{ %"class.Assimp::BaseImporter", i32, [4 x i8], %"class.std::__cxx11::basic_string", ptr, i32, [4 x i8], ptr, ptr, i32, %"struct.Assimp::MDL::HalfLife::HL1ImportSettings", [2 x i8] }>
%"class.Assimp::BaseImporter" = type { ptr, double, double, %"class.std::__cxx11::basic_string", %"class.std::__exception_ptr::exception_ptr", ptr }
%"class.std::__exception_ptr::exception_ptr" = type { ptr }
%"class.std::__cxx11::basic_string" = type { %"struct.std::__cxx11::basic_string<char>::_Alloc_hider", i64, %union.anon }
%"struct.std::__cxx11::basic_string<char>::_Alloc_hider" = type { ptr }
%union.anon = type { i64, [8 x i8] }
%"struct.Assimp::MDL::HalfLife::HL1ImportSettings" = type { i8, i8, i8, i8, i8, i8, i8, i8, i8, i8 }

@_ZTI17DeadlyImportError = linkonce_odr constant { ptr, ptr, ptr } { ptr getelementptr inbounds (ptr, ptr @_ZTVN10__cxxabiv120__si_class_type_infoE, i64 2), ptr @_ZTS17DeadlyImportError, ptr @_ZTI15DeadlyErrorBase }, comdat, align 8
@.str.44 = private unnamed_addr constant [85 x i8] c"Invalid MDL file. The file is too small or contains invalid data (File: %s Line: %u)\00", align 1

; Function Attrs: mustprogress nounwind uwtable
define hidden noundef zeroext i1 @_ZNK6Assimp11MDLImporter10IsPosValidEPKv(ptr noundef nonnull align 8 dereferenceable(158) %this, ptr noundef %szPos) #0 align 2 {
entry:
  %this.addr = alloca ptr, align 8
  %szPos.addr = alloca ptr, align 8
  store ptr %this, ptr %this.addr, align 8
  store ptr %szPos, ptr %szPos.addr, align 8
  %this1 = load ptr, ptr %this.addr, align 8
  %0 = load ptr, ptr %szPos.addr, align 8
  %tobool = icmp ne ptr %0, null
  br i1 %tobool, label %land.lhs.true, label %land.end

land.lhs.true:                                    ; preds = %entry
  %1 = load ptr, ptr %szPos.addr, align 8
  %mBuffer = getelementptr inbounds %"class.Assimp::MDLImporter", ptr %this1, i32 0, i32 4
  %2 = load ptr, ptr %mBuffer, align 8
  %iFileSize = getelementptr inbounds %"class.Assimp::MDLImporter", ptr %this1, i32 0, i32 9
  %3 = load i32, ptr %iFileSize, align 8
  %idx.ext = zext i32 %3 to i64
  %add.ptr = getelementptr inbounds i8, ptr %2, i64 %idx.ext
  %cmp = icmp ule ptr %1, %add.ptr
  br i1 %cmp, label %land.rhs, label %land.end

land.rhs:                                         ; preds = %land.lhs.true
  %4 = load ptr, ptr %szPos.addr, align 8
  %mBuffer2 = getelementptr inbounds %"class.Assimp::MDLImporter", ptr %this1, i32 0, i32 4
  %5 = load ptr, ptr %mBuffer2, align 8
  %cmp3 = icmp uge ptr %4, %5
  br label %land.end

land.end:                                         ; preds = %land.rhs, %land.lhs.true, %entry
  %6 = phi i1 [ false, %land.lhs.true ], [ false, %entry ], [ %cmp3, %land.rhs ]
  ret i1 %6
}

; Function Attrs: mustprogress uwtable
define hidden void @_ZN6Assimp11MDLImporter9SizeCheckEPKvPKcj(ptr noundef nonnull align 8 dereferenceable(158) %this, ptr noundef %szPos, ptr noundef %szFile, i32 noundef %iLine) #2 align 2 personality ptr @__gxx_personality_v0 {
entry:
  %this.addr = alloca ptr, align 8
  %szPos.addr = alloca ptr, align 8
  %szFile.addr = alloca ptr, align 8
  %iLine.addr = alloca i32, align 4
  %szFilePtr = alloca ptr, align 8
  %szBuffer = alloca [1024 x i8], align 16
  %exn.slot = alloca ptr, align 8
  %ehselector.slot = alloca i32, align 4
  store ptr %this, ptr %this.addr, align 8
  store ptr %szPos, ptr %szPos.addr, align 8
  store ptr %szFile, ptr %szFile.addr, align 8
  store i32 %iLine, ptr %iLine.addr, align 4
  %this1 = load ptr, ptr %this.addr, align 8
  %0 = load ptr, ptr %szPos.addr, align 8
  %call = call noundef zeroext i1 @_ZNK6Assimp11MDLImporter10IsPosValidEPKv(ptr noundef nonnull align 8 dereferenceable(158) %this1, ptr noundef %0)
  br i1 %call, label %if.end11, label %if.then

if.then:                                          ; preds = %entry
  %1 = load ptr, ptr %szFile.addr, align 8
  %call2 = call noundef ptr @strrchr(ptr noundef %1, i32 noundef 92) #20
  store ptr %call2, ptr %szFilePtr, align 8
  %2 = load ptr, ptr %szFilePtr, align 8
  %tobool = icmp ne ptr %2, null
  br i1 %tobool, label %if.end6, label %if.then3

if.then3:                                         ; preds = %if.then
  %3 = load ptr, ptr %szFile.addr, align 8
  %call4 = call noundef ptr @strrchr(ptr noundef %3, i32 noundef 47) #20
  store ptr %call4, ptr %szFilePtr, align 8
  %4 = load ptr, ptr %szFilePtr, align 8
  %cmp = icmp eq ptr null, %4
  br i1 %cmp, label %if.then5, label %if.end

if.then5:                                         ; preds = %if.then3
  %5 = load ptr, ptr %szFile.addr, align 8
  store ptr %5, ptr %szFilePtr, align 8
  br label %if.end

if.end:                                           ; preds = %if.then5, %if.then3
  br label %if.end6

if.end6:                                          ; preds = %if.end, %if.then
  %6 = load ptr, ptr %szFilePtr, align 8
  %tobool7 = icmp ne ptr %6, null
  br i1 %tobool7, label %if.then8, label %if.end9

if.then8:                                         ; preds = %if.end6
  %7 = load ptr, ptr %szFilePtr, align 8
  %incdec.ptr = getelementptr inbounds i8, ptr %7, i32 1
  store ptr %incdec.ptr, ptr %szFilePtr, align 8
  br label %if.end9

if.end9:                                          ; preds = %if.then8, %if.end6
  %arraydecay = getelementptr inbounds [1024 x i8], ptr %szBuffer, i64 0, i64 0
  %8 = load ptr, ptr %szFilePtr, align 8
  %9 = load i32, ptr %iLine.addr, align 4
  %call10 = call i32 (ptr, i64, ptr, ...) @snprintf(ptr noundef %arraydecay, i64 noundef 1024, ptr noundef @.str.44, ptr noundef %8, i32 noundef %9) #16
  %exception = call ptr @__cxa_allocate_exception(i64 16) #16
  invoke void @_ZN17DeadlyImportErrorC2IJRA1024_cEEEDpOT_(ptr noundef nonnull align 8 dereferenceable(16) %exception, ptr noundef nonnull align 1 dereferenceable(1024) %szBuffer)
          to label %invoke.cont unwind label %lpad

invoke.cont:                                      ; preds = %if.end9
  call void @__cxa_throw(ptr %exception, ptr @_ZTI17DeadlyImportError, ptr @_ZN17DeadlyImportErrorD2Ev) #17
  unreachable

lpad:                                             ; preds = %if.end9
  %10 = landingpad { ptr, i32 }
          cleanup
  %11 = extractvalue { ptr, i32 } %10, 0
  store ptr %11, ptr %exn.slot, align 8
  %12 = extractvalue { ptr, i32 } %10, 1
  store i32 %12, ptr %ehselector.slot, align 4
  call void @__cxa_free_exception(ptr %exception) #16
  br label %eh.resume

if.end11:                                         ; preds = %entry
  ret void

eh.resume:                                        ; preds = %lpad
  %exn = load ptr, ptr %exn.slot, align 8
  %sel = load i32, ptr %ehselector.slot, align 4
  %lpad.val = insertvalue { ptr, i32 } poison, ptr %exn, 0
  %lpad.val12 = insertvalue { ptr, i32 } %lpad.val, i32 %sel, 1
  resume { ptr, i32 } %lpad.val12
}