; Function Attrs: mustprogress uwtable
define hidden void @_ZN6Assimp11MDLImporter9SizeCheckEPKvPKcj(ptr nocapture noundef nonnull readonly align 8 dereferenceable(158) %this, ptr noundef readnone %szPos, ptr noundef %szFile, i32 noundef %iLine) local_unnamed_addr #2 align 2 personality ptr @__gxx_personality_v0 {
entry:
  %szBuffer = alloca [1024 x i8], align 16
  %tobool.not.i = icmp eq ptr %szPos, null
  br i1 %tobool.not.i, label %if.then, label %_ZNK6Assimp11MDLImporter10IsPosValidEPKv.exit

_ZNK6Assimp11MDLImporter10IsPosValidEPKv.exit:    ; preds = %entry
  %mBuffer.i = getelementptr inbounds i8, ptr %this, i64 112
  %0 = load ptr, ptr %mBuffer.i, align 8
  %iFileSize.i = getelementptr inbounds i8, ptr %this, i64 144
  %1 = load i32, ptr %iFileSize.i, align 8
  %idx.ext.i = zext i32 %1 to i64
  %add.ptr.i = getelementptr inbounds i8, ptr %0, i64 %idx.ext.i
  %cmp.not.i = icmp uge ptr %add.ptr.i, %szPos
  %cmp3.i = icmp ule ptr %0, %szPos
  %spec.select.i = and i1 %cmp3.i, %cmp.not.i
  br i1 %spec.select.i, label %if.end11, label %if.then

if.then:                                          ; preds = %entry, %_ZNK6Assimp11MDLImporter10IsPosValidEPKv.exit
  %call2 = tail call noundef ptr @strrchr(ptr noundef nonnull dereferenceable(1) %szFile, i32 noundef 92) #29
  %tobool.not = icmp eq ptr %call2, null
  br i1 %tobool.not, label %if.then3, label %if.end6

if.then3:                                         ; preds = %if.then
  %call4 = tail call noundef ptr @strrchr(ptr noundef nonnull dereferenceable(1) %szFile, i32 noundef 47) #29
  %cmp = icmp eq ptr %call4, null
  %spec.select = select i1 %cmp, ptr %szFile, ptr %call4
  br label %if.end6

if.end6:                                          ; preds = %if.then3, %if.then
  %szFilePtr.0 = phi ptr [ %call2, %if.then ], [ %spec.select, %if.then3 ]
  %tobool7.not = icmp eq ptr %szFilePtr.0, null
  %incdec.ptr = getelementptr inbounds i8, ptr %szFilePtr.0, i64 1
  %spec.select7 = select i1 %tobool7.not, ptr null, ptr %incdec.ptr
  %call10 = call i32 (ptr, i64, ptr, ...) @snprintf(ptr noundef nonnull dereferenceable(1) %szBuffer, i64 noundef 1024, ptr noundef nonnull @.str.44, ptr noundef %spec.select7, i32 noundef %iLine) #24
  %exception = tail call ptr @__cxa_allocate_exception(i64 16) #24
  invoke void @_ZN17DeadlyImportErrorC2IJRA1024_cEEEDpOT_(ptr noundef nonnull align 8 dereferenceable(16) %exception, ptr noundef nonnull align 1 dereferenceable(1024) %szBuffer)
          to label %invoke.cont unwind label %lpad

invoke.cont:                                      ; preds = %if.end6
  call void @__cxa_throw(ptr nonnull %exception, ptr nonnull @_ZTI17DeadlyImportError, ptr nonnull @_ZN17DeadlyImportErrorD2Ev) #25
  unreachable

lpad:                                             ; preds = %if.end6
  %2 = landingpad { ptr, i32 }
          cleanup
  call void @__cxa_free_exception(ptr %exception) #24
  resume { ptr, i32 } %2

if.end11:                                         ; preds = %_ZNK6Assimp11MDLImporter10IsPosValidEPKv.exit
  ret void
}